(dp0
I0
S'Ikke gitt'
p1
sI1
S'Staalis'
p2
sI3
S'Soerpeis'
p3
sI5
S'Vann/soerpe (mellomlag)'
p4
sI9
S'Sarr'
p5
sI11
S'Staalis i nedbryting'
p6
sI13
S'Soerpeis i nedbryting'
p7
sI14
S'Stavis (vaaris)'
p8
sI99
S'Annet (spesifiser)'
p9
s.